; Function Attrs: mustprogress null_pointer_is_valid sspstrong uwtable
define internal void @"_ZN9QtPrivate18QFunctorSlotObjectIZN19WiresharkMainWindow23showConversationsDialogEvE3$_0Li3ENS_4ListIJijjEEEvE4implEiPNS_15QSlotObjectBaseEP7QObjectPPvPb"(i32 noundef %0, ptr noundef %1, ptr readnone captures(none) %2, ptr noundef readonly captures(none) %3, ptr readnone captures(none) %4) #0 align 2 {
  switch i32 %0, label %20 [
    i32 0, label %6
    i32 1, label %9
  ]

6:                                                ; preds = %5
  %7 = icmp eq ptr %1, null
  br i1 %7, label %20, label %8

8:                                                ; preds = %6
  tail call void @_ZdlPvm(ptr noundef nonnull %1, i64 noundef 24) #26
  br label %20

9:                                                ; preds = %5
  %10 = getelementptr inbounds nuw i8, ptr %1, i64 16
  %.val = load ptr, ptr %10, align 8
  %11 = getelementptr i8, ptr %3, i64 8
  %12 = load ptr, ptr %11, align 8
  %13 = load i32, ptr %12, align 4
  %14 = getelementptr i8, ptr %3, i64 16
  %15 = load ptr, ptr %14, align 8
  %16 = load i32, ptr %15, align 4
  %17 = getelementptr i8, ptr %3, i64 24
  %18 = load ptr, ptr %17, align 8
  %19 = load i32, ptr %18, align 4
  tail call void @_ZN19WiresharkMainWindow22openFollowStreamDialogEijjb(ptr noundef align 8 dereferenceable_or_null(560) %.val, i32 noundef %13, i32 noundef %16, i32 noundef %19, i1 noundef zeroext true)
  br label %20

20:                                               ; preds = %6, %8, %9, %5
  ret void
}